target datalayout = "e-m:e-p270:32:32-p271:32:32-p272:64:64-i64:64-i128:128-f80:128-n8:16:32:64-S128"
target triple = "x86_64-pc-linux-gnu"

%"class.icu_77::Normalizer" = type <{ %"class.icu_77::UObject", ptr, ptr, i32, i32, ptr, i32, i32, %"class.icu_77::UnicodeString", i32, [4 x i8] }>
%"class.icu_77::UObject" = type { ptr }
%"class.icu_77::UnicodeString" = type { %"class.icu_77::Replaceable", %"union.icu_77::UnicodeString::StackBufferOrFields" }
%"class.icu_77::Replaceable" = type { %"class.icu_77::UObject" }
%"union.icu_77::UnicodeString::StackBufferOrFields" = type { %struct.anon.0, [32 x i8] }
%struct.anon.0 = type { i16, i32, i32, ptr }
%struct.anon = type { i16, [27 x i16] }
%"class.icu_77::CharacterIterator" = type { %"class.icu_77::ForwardCharacterIterator", i32, i32, i32, i32 }
%"class.icu_77::ForwardCharacterIterator" = type { %"class.icu_77::UObject" }

@_ZTVN6icu_777UObjectE = available_externally unnamed_addr constant { [5 x ptr] } { [5 x ptr] [ptr null, ptr @_ZTIN6icu_777UObjectE, ptr @_ZN6icu_777UObjectD1Ev, ptr @_ZN6icu_777UObjectD0Ev, ptr @_ZNK6icu_777UObject17getDynamicClassIDEv] }, align 8

; Function Attrs: inlinehint mustprogress nounwind uwtable
define linkonce_odr void @_ZN6icu_777UObjectC2Ev(ptr noundef nonnull align 8 dereferenceable(8) %0) unnamed_addr #3 comdat align 2 {
  %2 = alloca ptr, align 8
  store ptr %0, ptr %2, align 8, !tbaa !30
  %3 = load ptr, ptr %2, align 8
  store ptr getelementptr inbounds inrange(-16, 24) ({ [5 x ptr] }, ptr @_ZTVN6icu_777UObjectE, i32 0, i32 0, i32 2), ptr %3, align 8, !tbaa !12
  ret void
}

; Function Attrs: inlinehint mustprogress nounwind uwtable
define linkonce_odr void @_ZN6icu_7713UnicodeString13setZeroLengthEv(ptr noundef nonnull align 8 dereferenceable(64) %0) #3 comdat align 2 {
  %2 = alloca ptr, align 8
  store ptr %0, ptr %2, align 8, !tbaa !8
  %3 = load ptr, ptr %2, align 8
  %4 = getelementptr inbounds nuw %"class.icu_77::UnicodeString", ptr %3, i32 0, i32 1
  %5 = getelementptr inbounds nuw %struct.anon.0, ptr %4, i32 0, i32 0
  %6 = load i16, ptr %5, align 8, !tbaa !32
  %7 = sext i16 %6 to i32
  %8 = and i32 %7, 31
  %9 = trunc i32 %8 to i16
  store i16 %9, ptr %5, align 8, !tbaa !32
  ret void
}

; Function Attrs: inlinehint mustprogress nounwind uwtable
define linkonce_odr void @_ZN6icu_7713UnicodeString10setToEmptyEv(ptr noundef nonnull align 8 dereferenceable(64) %0) #3 comdat align 2 {
  %2 = alloca ptr, align 8
  store ptr %0, ptr %2, align 8, !tbaa !8
  %3 = load ptr, ptr %2, align 8
  %4 = getelementptr inbounds nuw %"class.icu_77::UnicodeString", ptr %3, i32 0, i32 1
  %5 = getelementptr inbounds nuw %struct.anon.0, ptr %4, i32 0, i32 0
  store i16 2, ptr %5, align 8, !tbaa !32
  ret void
}

; Function Attrs: inlinehint mustprogress nounwind uwtable
define linkonce_odr noundef signext i8 @_ZNK6icu_7713UnicodeString7isBogusEv(ptr noundef nonnull align 8 dereferenceable(64) %0) #3 comdat align 2 {
  %2 = alloca ptr, align 8
  store ptr %0, ptr %2, align 8, !tbaa !8
  %3 = load ptr, ptr %2, align 8
  %4 = getelementptr inbounds nuw %"class.icu_77::UnicodeString", ptr %3, i32 0, i32 1
  %5 = getelementptr inbounds nuw %struct.anon.0, ptr %4, i32 0, i32 0
  %6 = load i16, ptr %5, align 8, !tbaa !32
  %7 = sext i16 %6 to i32
  %8 = and i32 %7, 1
  %9 = trunc i32 %8 to i8
  ret i8 %9
}

; Function Attrs: inlinehint mustprogress nounwind uwtable
define linkonce_odr noundef i32 @_ZNK6icu_7713UnicodeString14getShortLengthEv(ptr noundef nonnull align 8 dereferenceable(64) %0) #3 comdat align 2 {
  %2 = alloca ptr, align 8
  store ptr %0, ptr %2, align 8, !tbaa !8
  %3 = load ptr, ptr %2, align 8
  %4 = getelementptr inbounds nuw %"class.icu_77::UnicodeString", ptr %3, i32 0, i32 1
  %5 = getelementptr inbounds nuw %struct.anon.0, ptr %4, i32 0, i32 0
  %6 = load i16, ptr %5, align 8, !tbaa !32
  %7 = sext i16 %6 to i32
  %8 = ashr i32 %7, 5
  ret i32 %8
}

; Function Attrs: inlinehint mustprogress nounwind uwtable
define linkonce_odr noundef signext i8 @_ZNK6icu_7713UnicodeString14hasShortLengthEv(ptr noundef nonnull align 8 dereferenceable(64) %0) #3 comdat align 2 {
  %2 = alloca ptr, align 8
  store ptr %0, ptr %2, align 8, !tbaa !8
  %3 = load ptr, ptr %2, align 8
  %4 = getelementptr inbounds nuw %"class.icu_77::UnicodeString", ptr %3, i32 0, i32 1
  %5 = getelementptr inbounds nuw %struct.anon.0, ptr %4, i32 0, i32 0
  %6 = load i16, ptr %5, align 8, !tbaa !32
  %7 = sext i16 %6 to i32
  %8 = icmp sge i32 %7, 0
  %9 = zext i1 %8 to i8
  ret i8 %9
}

; Function Attrs: inlinehint mustprogress nounwind uwtable
define linkonce_odr void @_ZN6icu_7711ReplaceableC2Ev(ptr noundef nonnull align 8 dereferenceable(8) %0) unnamed_addr #3 comdat align 2 {
  %2 = alloca ptr, align 8
  store ptr %0, ptr %2, align 8, !tbaa !58
  %3 = load ptr, ptr %2, align 8
  call void @_ZN6icu_777UObjectC2Ev(ptr noundef nonnull align 8 dereferenceable(8) %3) #9
  store ptr getelementptr inbounds inrange(-16, 88) ({ [13 x ptr] }, ptr @_ZTVN6icu_7711ReplaceableE, i32 0, i32 0, i32 2), ptr %3, align 8, !tbaa !12
  ret void
}

; Function Attrs: inlinehint mustprogress uwtable
define linkonce_odr noundef nonnull align 8 dereferenceable(64) ptr @_ZN6icu_7713UnicodeString6removeEv(ptr noundef nonnull align 8 dereferenceable(64) %0) #6 comdat align 2 {
  %2 = alloca ptr, align 8
  store ptr %0, ptr %2, align 8, !tbaa !8
  %3 = load ptr, ptr %2, align 8
  %4 = call noundef signext i8 @_ZNK6icu_7713UnicodeString7isBogusEv(ptr noundef nonnull align 8 dereferenceable(64) %3)
  %5 = icmp ne i8 %4, 0
  br i1 %5, label %6, label %7

6:                                                ; preds = %1
  call void @_ZN6icu_7713UnicodeString10setToEmptyEv(ptr noundef nonnull align 8 dereferenceable(64) %3)
  br label %8

7:                                                ; preds = %1
  call void @_ZN6icu_7713UnicodeString13setZeroLengthEv(ptr noundef nonnull align 8 dereferenceable(64) %3)
  br label %8

8:                                                ; preds = %7, %6
  ret ptr %3
}

; Function Attrs: inlinehint mustprogress nounwind uwtable
define linkonce_odr noundef signext i8 @_ZNK6icu_7713UnicodeString7isEmptyEv(ptr noundef nonnull align 8 dereferenceable(64) %0) #3 comdat align 2 {
  %2 = alloca ptr, align 8
  store ptr %0, ptr %2, align 8, !tbaa !8
  %3 = load ptr, ptr %2, align 8
  %4 = getelementptr inbounds nuw %"class.icu_77::UnicodeString", ptr %3, i32 0, i32 1
  %5 = getelementptr inbounds nuw %struct.anon.0, ptr %4, i32 0, i32 0
  %6 = load i16, ptr %5, align 8, !tbaa !32
  %7 = sext i16 %6 to i32
  %8 = ashr i32 %7, 5
  %9 = icmp eq i32 %8, 0
  %10 = zext i1 %9 to i8
  ret i8 %10
}

; Function Attrs: inlinehint mustprogress nounwind uwtable
define internal noundef signext i8 @_ZL9U_SUCCESS10UErrorCode(i32 noundef %0) #3 {
  %2 = alloca i32, align 4
  store i32 %0, ptr %2, align 4, !tbaa !33
  %3 = load i32, ptr %2, align 4, !tbaa !33
  %4 = icmp sle i32 %3, 0
  %5 = zext i1 %4 to i8
  ret i8 %5
}

; Function Attrs: inlinehint mustprogress uwtable
define linkonce_odr noundef i32 @_ZNK6icu_7713UnicodeString6lengthEv(ptr noundef nonnull align 8 dereferenceable(64) %0) #6 comdat align 2 {
  %2 = alloca ptr, align 8
  store ptr %0, ptr %2, align 8, !tbaa !8
  %3 = load ptr, ptr %2, align 8
  %4 = call noundef signext i8 @_ZNK6icu_7713UnicodeString14hasShortLengthEv(ptr noundef nonnull align 8 dereferenceable(64) %3)
  %5 = icmp ne i8 %4, 0
  br i1 %5, label %6, label %8

6:                                                ; preds = %1
  %7 = call noundef i32 @_ZNK6icu_7713UnicodeString14getShortLengthEv(ptr noundef nonnull align 8 dereferenceable(64) %3)
  br label %12

8:                                                ; preds = %1
  %9 = getelementptr inbounds nuw %"class.icu_77::UnicodeString", ptr %3, i32 0, i32 1
  %10 = getelementptr inbounds nuw %struct.anon.0, ptr %9, i32 0, i32 1
  %11 = load i32, ptr %10, align 4, !tbaa !32
  br label %12

12:                                               ; preds = %8, %6
  %13 = phi i32 [ %7, %6 ], [ %11, %8 ]
  ret i32 %13
}

; Function Attrs: inlinehint mustprogress nounwind uwtable
define linkonce_odr noundef i32 @_ZNK6icu_7717CharacterIterator8getIndexEv(ptr noundef nonnull align 8 dereferenceable(24) %0) #3 comdat align 2 {
  %2 = alloca ptr, align 8
  store ptr %0, ptr %2, align 8, !tbaa !44
  %3 = load ptr, ptr %2, align 8
  %4 = getelementptr inbounds nuw %"class.icu_77::CharacterIterator", ptr %3, i32 0, i32 2
  %5 = load i32, ptr %4, align 4, !tbaa !53
  ret i32 %5
}

; Function Attrs: inlinehint mustprogress uwtable
define linkonce_odr noundef nonnull align 8 dereferenceable(64) ptr @_ZN6icu_7713UnicodeString6insertEii(ptr noundef nonnull align 8 dereferenceable(64) %0, i32 noundef %1, i32 noundef %2) #6 comdat align 2 {
  %4 = alloca ptr, align 8
  %5 = alloca i32, align 4
  %6 = alloca i32, align 4
  store ptr %0, ptr %4, align 8, !tbaa !8
  store i32 %1, ptr %5, align 4, !tbaa !37
  store i32 %2, ptr %6, align 4, !tbaa !37
  %7 = load ptr, ptr %4, align 8
  %8 = load i32, ptr %5, align 4, !tbaa !37
  %9 = load i32, ptr %6, align 4, !tbaa !37
  %10 = call noundef nonnull align 8 dereferenceable(64) ptr @_ZN6icu_7713UnicodeString7replaceEiii(ptr noundef nonnull align 8 dereferenceable(64) %7, i32 noundef %8, i32 noundef 0, i32 noundef %9)
  ret ptr %10
}

; Function Attrs: inlinehint mustprogress uwtable
define linkonce_odr void @_ZN6icu_7713UnicodeStringC2Ev(ptr noundef nonnull align 8 dereferenceable(64) %0) unnamed_addr #6 comdat align 2 {
  %2 = alloca ptr, align 8
  store ptr %0, ptr %2, align 8, !tbaa !8
  %3 = load ptr, ptr %2, align 8
  call void @_ZN6icu_7711ReplaceableC2Ev(ptr noundef nonnull align 8 dereferenceable(8) %3)
  store ptr getelementptr inbounds inrange(-16, 88) ({ [13 x ptr] }, ptr @_ZTVN6icu_7713UnicodeStringE, i32 0, i32 0, i32 2), ptr %3, align 8, !tbaa !12
  %4 = getelementptr inbounds nuw %"class.icu_77::UnicodeString", ptr %3, i32 0, i32 1
  %5 = getelementptr inbounds nuw %struct.anon, ptr %4, i32 0, i32 0
  store i16 2, ptr %5, align 8, !tbaa !32
  ret void
}

; Function Attrs: mustprogress uwtable
define void @_ZN6icu_7710Normalizer11clearBufferEv(ptr noundef nonnull align 8 dereferenceable(116) %0) #1 align 2 {
  %2 = alloca ptr, align 8
  store ptr %0, ptr %2, align 8, !tbaa !3
  %3 = load ptr, ptr %2, align 8
  %4 = getelementptr inbounds nuw %"class.icu_77::Normalizer", ptr %3, i32 0, i32 8
  %5 = call noundef nonnull align 8 dereferenceable(64) ptr @_ZN6icu_7713UnicodeString6removeEv(ptr noundef nonnull align 8 dereferenceable(64) %4)
  %6 = getelementptr inbounds nuw %"class.icu_77::Normalizer", ptr %3, i32 0, i32 9
  store i32 0, ptr %6, align 8, !tbaa !29
  ret void
}

; Function Attrs: mustprogress uwtable
define noundef signext i8 @_ZN6icu_7710Normalizer17previousNormalizeEv(ptr noundef nonnull align 8 dereferenceable(116) %0) #1 align 2 personality ptr @__gxx_personality_v0 {
  %2 = alloca i8, align 1
  %3 = alloca ptr, align 8
  %4 = alloca %"class.icu_77::UnicodeString", align 8
  %5 = alloca ptr, align 8
  %6 = alloca i32, align 4
  %7 = alloca i32, align 4
  %8 = alloca i32, align 4
  %9 = alloca i32, align 4
  store ptr %0, ptr %3, align 8, !tbaa !3
  %10 = load ptr, ptr %3, align 8
  call void @_ZN6icu_7710Normalizer11clearBufferEv(ptr noundef nonnull align 8 dereferenceable(116) %10)
  %11 = getelementptr inbounds nuw %"class.icu_77::Normalizer", ptr %10, i32 0, i32 6
  %12 = load i32, ptr %11, align 8, !tbaa !27
  %13 = getelementptr inbounds nuw %"class.icu_77::Normalizer", ptr %10, i32 0, i32 7
  store i32 %12, ptr %13, align 4, !tbaa !28
  %14 = getelementptr inbounds nuw %"class.icu_77::Normalizer", ptr %10, i32 0, i32 5
  %15 = load ptr, ptr %14, align 8, !tbaa !26
  %16 = getelementptr inbounds nuw %"class.icu_77::Normalizer", ptr %10, i32 0, i32 6
  %17 = load i32, ptr %16, align 8, !tbaa !27
  %18 = load ptr, ptr %15, align 8, !tbaa !12
  %19 = getelementptr inbounds ptr, ptr %18, i64 15
  %20 = load ptr, ptr %19, align 8
  %21 = call noundef zeroext i16 %20(ptr noundef nonnull align 8 dereferenceable(24) %15, i32 noundef %17)
  %22 = getelementptr inbounds nuw %"class.icu_77::Normalizer", ptr %10, i32 0, i32 5
  %23 = load ptr, ptr %22, align 8, !tbaa !26
  %24 = load ptr, ptr %23, align 8, !tbaa !12
  %25 = getelementptr inbounds ptr, ptr %24, i64 23
  %26 = load ptr, ptr %25, align 8
  %27 = call noundef signext i8 %26(ptr noundef nonnull align 8 dereferenceable(24) %23)
  %28 = icmp ne i8 %27, 0
  br i1 %28, label %30, label %29

29:                                               ; preds = %1
  store i8 0, ptr %2, align 1
  br label %109

30:                                               ; preds = %1
  call void @llvm.lifetime.start.p0(i64 64, ptr %4) #9
  call void @_ZN6icu_7713UnicodeStringC2Ev(ptr noundef nonnull align 8 dereferenceable(64) %4)
  br label %31

31:                                               ; preds = %72, %30
  %32 = getelementptr inbounds nuw %"class.icu_77::Normalizer", ptr %10, i32 0, i32 5
  %33 = load ptr, ptr %32, align 8, !tbaa !26
  %34 = load ptr, ptr %33, align 8, !tbaa !12
  %35 = getelementptr inbounds ptr, ptr %34, i64 23
  %36 = load ptr, ptr %35, align 8
  %37 = invoke noundef signext i8 %36(ptr noundef nonnull align 8 dereferenceable(24) %33)
          to label %38 unwind label %61

38:                                               ; preds = %31
  %39 = icmp ne i8 %37, 0
  br i1 %39, label %40, label %73

40:                                               ; preds = %38
  call void @llvm.lifetime.start.p0(i64 4, ptr %7) #9
  %41 = getelementptr inbounds nuw %"class.icu_77::Normalizer", ptr %10, i32 0, i32 5
  %42 = load ptr, ptr %41, align 8, !tbaa !26
  %43 = load ptr, ptr %42, align 8, !tbaa !12
  %44 = getelementptr inbounds ptr, ptr %43, i64 22
  %45 = load ptr, ptr %44, align 8
  %46 = invoke noundef i32 %45(ptr noundef nonnull align 8 dereferenceable(24) %42)
          to label %47 unwind label %65

47:                                               ; preds = %40
  store i32 %46, ptr %7, align 4, !tbaa !37
  %48 = load i32, ptr %7, align 4, !tbaa !37
  %49 = invoke noundef nonnull align 8 dereferenceable(64) ptr @_ZN6icu_7713UnicodeString6insertEii(ptr noundef nonnull align 8 dereferenceable(64) %4, i32 noundef 0, i32 noundef %48)
          to label %50 unwind label %65

50:                                               ; preds = %47
  %51 = getelementptr inbounds nuw %"class.icu_77::Normalizer", ptr %10, i32 0, i32 2
  %52 = load ptr, ptr %51, align 8, !tbaa !23
  %53 = load i32, ptr %7, align 4, !tbaa !37
  %54 = load ptr, ptr %52, align 8, !tbaa !12
  %55 = getelementptr inbounds ptr, ptr %54, i64 15
  %56 = load ptr, ptr %55, align 8
  %57 = invoke noundef signext i8 %56(ptr noundef nonnull align 8 dereferenceable(8) %52, i32 noundef %53)
          to label %58 unwind label %65

58:                                               ; preds = %50
  %59 = icmp ne i8 %57, 0
  br i1 %59, label %60, label %69

60:                                               ; preds = %58
  store i32 3, ptr %8, align 4
  br label %70

61:                                               ; preds = %73, %31
  %62 = landingpad { ptr, i32 }
          cleanup
  %63 = extractvalue { ptr, i32 } %62, 0
  store ptr %63, ptr %5, align 8
  %64 = extractvalue { ptr, i32 } %62, 1
  store i32 %64, ptr %6, align 4
  br label %108

65:                                               ; preds = %50, %47, %40
  %66 = landingpad { ptr, i32 }
          cleanup
  %67 = extractvalue { ptr, i32 } %66, 0
  store ptr %67, ptr %5, align 8
  %68 = extractvalue { ptr, i32 } %66, 1
  store i32 %68, ptr %6, align 4
  call void @llvm.lifetime.end.p0(i64 4, ptr %7) #9
  br label %108

69:                                               ; preds = %58
  store i32 0, ptr %8, align 4
  br label %70

70:                                               ; preds = %69, %60
  call void @llvm.lifetime.end.p0(i64 4, ptr %7) #9
  %71 = load i32, ptr %8, align 4
  switch i32 %71, label %116 [
    i32 0, label %72
    i32 3, label %73
  ]

72:                                               ; preds = %70
  br label %31, !llvm.loop !52

73:                                               ; preds = %70, %38
  %74 = getelementptr inbounds nuw %"class.icu_77::Normalizer", ptr %10, i32 0, i32 5
  %75 = load ptr, ptr %74, align 8, !tbaa !26
  %76 = invoke noundef i32 @_ZNK6icu_7717CharacterIterator8getIndexEv(ptr noundef nonnull align 8 dereferenceable(24) %75)
          to label %77 unwind label %61

77:                                               ; preds = %73
  %78 = getelementptr inbounds nuw %"class.icu_77::Normalizer", ptr %10, i32 0, i32 6
  store i32 %76, ptr %78, align 8, !tbaa !27
  call void @llvm.lifetime.start.p0(i64 4, ptr %9) #9
  store i32 0, ptr %9, align 4, !tbaa !33
  %79 = getelementptr inbounds nuw %"class.icu_77::Normalizer", ptr %10, i32 0, i32 2
  %80 = load ptr, ptr %79, align 8, !tbaa !23
  %81 = getelementptr inbounds nuw %"class.icu_77::Normalizer", ptr %10, i32 0, i32 8
  %82 = load ptr, ptr %80, align 8, !tbaa !12
  %83 = getelementptr inbounds ptr, ptr %82, i64 3
  %84 = load ptr, ptr %83, align 8
  %85 = invoke noundef nonnull align 8 dereferenceable(64) ptr %84(ptr noundef nonnull align 8 dereferenceable(8) %80, ptr noundef nonnull align 8 dereferenceable(64) %4, ptr noundef nonnull align 8 dereferenceable(64) %81, ptr noundef nonnull align 4 dereferenceable(4) %9)
          to label %86 unwind label %104

86:                                               ; preds = %77
  %87 = getelementptr inbounds nuw %"class.icu_77::Normalizer", ptr %10, i32 0, i32 8
  %88 = invoke noundef i32 @_ZNK6icu_7713UnicodeString6lengthEv(ptr noundef nonnull align 8 dereferenceable(64) %87)
          to label %89 unwind label %104

89:                                               ; preds = %86
  %90 = getelementptr inbounds nuw %"class.icu_77::Normalizer", ptr %10, i32 0, i32 9
  store i32 %88, ptr %90, align 8, !tbaa !29
  %91 = load i32, ptr %9, align 4, !tbaa !33
  %92 = invoke noundef signext i8 @_ZL9U_SUCCESS10UErrorCode(i32 noundef %91)
          to label %93 unwind label %104

93:                                               ; preds = %89
  %94 = icmp ne i8 %92, 0
  br i1 %94, label %95, label %101

95:                                               ; preds = %93
  %96 = getelementptr inbounds nuw %"class.icu_77::Normalizer", ptr %10, i32 0, i32 8
  %97 = invoke noundef signext i8 @_ZNK6icu_7713UnicodeString7isEmptyEv(ptr noundef nonnull align 8 dereferenceable(64) %96)
          to label %98 unwind label %104

98:                                               ; preds = %95
  %99 = icmp ne i8 %97, 0
  %100 = xor i1 %99, true
  br label %101

101:                                              ; preds = %98, %93
  %102 = phi i1 [ false, %93 ], [ %100, %98 ]
  %103 = zext i1 %102 to i8
  store i8 %103, ptr %2, align 1
  store i32 1, ptr %8, align 4
  call void @llvm.lifetime.end.p0(i64 4, ptr %9) #9
  call void @_ZN6icu_7713UnicodeStringD1Ev(ptr noundef nonnull align 8 dereferenceable(64) %4) #9
  call void @llvm.lifetime.end.p0(i64 64, ptr %4) #9
  br label %109

104:                                              ; preds = %95, %89, %86, %77
  %105 = landingpad { ptr, i32 }
          cleanup
  %106 = extractvalue { ptr, i32 } %105, 0
  store ptr %106, ptr %5, align 8
  %107 = extractvalue { ptr, i32 } %105, 1
  store i32 %107, ptr %6, align 4
  call void @llvm.lifetime.end.p0(i64 4, ptr %9) #9
  br label %108

108:                                              ; preds = %104, %65, %61
  call void @_ZN6icu_7713UnicodeStringD1Ev(ptr noundef nonnull align 8 dereferenceable(64) %4) #9
  call void @llvm.lifetime.end.p0(i64 64, ptr %4) #9
  br label %111

109:                                              ; preds = %101, %29
  %110 = load i8, ptr %2, align 1
  ret i8 %110

111:                                              ; preds = %108
  %112 = load ptr, ptr %5, align 8
  %113 = load i32, ptr %6, align 4
  %114 = insertvalue { ptr, i32 } poison, ptr %112, 0
  %115 = insertvalue { ptr, i32 } %114, i32 %113, 1
  resume { ptr, i32 } %115

116:                                              ; preds = %70
  unreachable
}