; Function Attrs: mustprogress uwtable
define noundef signext range(i8 0, 2) i8 @_ZN6icu_7710Normalizer17previousNormalizeEv(ptr noundef nonnull align 8 dereferenceable(116) initializes((44, 48), (112, 116)) %0) local_unnamed_addr #1 align 2 personality ptr @__gxx_personality_v0 {
  %2 = alloca %"class.icu_77::UnicodeString", align 8
  %3 = alloca i32, align 4
  %4 = getelementptr inbounds nuw i8, ptr %0, i64 56
  %5 = load i16, ptr %4, align 8, !tbaa !22
  %6 = and i16 %5, 1
  %.not.i.i = icmp eq i16 %6, 0
  %7 = and i16 %5, 30
  %storemerge.i.i = select i1 %.not.i.i, i16 %7, i16 2
  store i16 %storemerge.i.i, ptr %4, align 8, !tbaa !22
  %8 = getelementptr inbounds nuw i8, ptr %0, i64 112
  store i32 0, ptr %8, align 8, !tbaa !23
  %9 = getelementptr inbounds nuw i8, ptr %0, i64 40
  %10 = load i32, ptr %9, align 8, !tbaa !20
  %11 = getelementptr inbounds nuw i8, ptr %0, i64 44
  store i32 %10, ptr %11, align 4, !tbaa !21
  %12 = getelementptr inbounds nuw i8, ptr %0, i64 32
  %13 = load ptr, ptr %12, align 8, !tbaa !19
  %14 = load ptr, ptr %13, align 8, !tbaa !3
  %15 = getelementptr inbounds nuw i8, ptr %14, i64 120
  %16 = load ptr, ptr %15, align 8
  %17 = tail call noundef zeroext i16 %16(ptr noundef nonnull align 8 dereferenceable(24) %13, i32 noundef %10)
  %18 = load ptr, ptr %12, align 8, !tbaa !19
  %19 = load ptr, ptr %18, align 8, !tbaa !3
  %20 = getelementptr inbounds nuw i8, ptr %19, i64 184
  %21 = load ptr, ptr %20, align 8
  %22 = tail call noundef signext i8 %21(ptr noundef nonnull align 8 dereferenceable(24) %18)
  %.not = icmp eq i8 %22, 0
  br i1 %.not, label %76, label %23

23:                                               ; preds = %1
  call void @llvm.lifetime.start.p0(i64 64, ptr nonnull %2) #10
  store ptr getelementptr inbounds nuw inrange(-16, 88) (i8, ptr @_ZTVN6icu_7713UnicodeStringE, i64 16), ptr %2, align 8, !tbaa !3
  %24 = getelementptr inbounds nuw i8, ptr %2, i64 8
  store i16 2, ptr %24, align 8, !tbaa !22
  %25 = getelementptr inbounds nuw i8, ptr %0, i64 16
  br label %26

26:                                               ; preds = %46, %23
  %27 = load ptr, ptr %12, align 8, !tbaa !19
  %28 = load ptr, ptr %27, align 8, !tbaa !3
  %29 = getelementptr inbounds nuw i8, ptr %28, i64 184
  %30 = load ptr, ptr %29, align 8
  %31 = invoke noundef signext i8 %30(ptr noundef nonnull align 8 dereferenceable(24) %27)
          to label %32 unwind label %47

32:                                               ; preds = %26
  %.not9 = icmp eq i8 %31, 0
  br i1 %.not9, label %51, label %33

33:                                               ; preds = %32
  %34 = load ptr, ptr %12, align 8, !tbaa !19
  %35 = load ptr, ptr %34, align 8, !tbaa !3
  %36 = getelementptr inbounds nuw i8, ptr %35, i64 176
  %37 = load ptr, ptr %36, align 8
  %38 = invoke noundef i32 %37(ptr noundef nonnull align 8 dereferenceable(24) %34)
          to label %39 unwind label %49

39:                                               ; preds = %33
  %40 = invoke noundef nonnull align 8 dereferenceable(64) ptr @_ZN6icu_7713UnicodeString7replaceEiii(ptr noundef nonnull align 8 dereferenceable(64) %2, i32 noundef 0, i32 noundef 0, i32 noundef %38)
          to label %_ZN6icu_7713UnicodeString6insertEii.exit unwind label %49

_ZN6icu_7713UnicodeString6insertEii.exit:         ; preds = %39
  %41 = load ptr, ptr %25, align 8, !tbaa !26
  %42 = load ptr, ptr %41, align 8, !tbaa !3
  %43 = getelementptr inbounds nuw i8, ptr %42, i64 120
  %44 = load ptr, ptr %43, align 8
  %45 = invoke noundef signext i8 %44(ptr noundef nonnull align 8 dereferenceable(8) %41, i32 noundef %38)
          to label %46 unwind label %49

46:                                               ; preds = %_ZN6icu_7713UnicodeString6insertEii.exit
  %.not10 = icmp eq i8 %45, 0
  br i1 %.not10, label %26, label %51

47:                                               ; preds = %26
  %48 = landingpad { ptr, i32 }
          cleanup
  br label %75

49:                                               ; preds = %39, %_ZN6icu_7713UnicodeString6insertEii.exit, %33
  %50 = landingpad { ptr, i32 }
          cleanup
  br label %75

51:                                               ; preds = %46, %32
  %52 = load ptr, ptr %12, align 8, !tbaa !19
  %53 = getelementptr inbounds nuw i8, ptr %52, i64 12
  %54 = load i32, ptr %53, align 4, !tbaa !36
  store i32 %54, ptr %9, align 8, !tbaa !20
  call void @llvm.lifetime.start.p0(i64 4, ptr nonnull %3) #10
  store i32 0, ptr %3, align 4, !tbaa !24
  %55 = load ptr, ptr %25, align 8, !tbaa !26
  %56 = getelementptr inbounds nuw i8, ptr %0, i64 48
  %57 = load ptr, ptr %55, align 8, !tbaa !3
  %58 = getelementptr inbounds nuw i8, ptr %57, i64 24
  %59 = load ptr, ptr %58, align 8
  %60 = invoke noundef nonnull align 8 dereferenceable(64) ptr %59(ptr noundef nonnull align 8 dereferenceable(8) %55, ptr noundef nonnull align 8 dereferenceable(64) %2, ptr noundef nonnull align 8 dereferenceable(64) %56, ptr noundef nonnull align 4 dereferenceable(4) %3)
          to label %61 unwind label %73

61:                                               ; preds = %51
  %62 = load i16, ptr %4, align 8, !tbaa !22
  %63 = icmp slt i16 %62, 0
  %64 = ashr i16 %62, 5
  %65 = sext i16 %64 to i32
  %66 = getelementptr inbounds nuw i8, ptr %0, i64 60
  %67 = load i32, ptr %66, align 4
  %68 = select i1 %63, i32 %67, i32 %65
  store i32 %68, ptr %8, align 8, !tbaa !23
  %69 = load i32, ptr %3, align 4, !tbaa !24
  %70 = icmp slt i32 %69, 1
  %71 = icmp ugt i16 %62, 31
  %narrow = select i1 %70, i1 %71, i1 false
  %72 = zext i1 %narrow to i8
  call void @llvm.lifetime.end.p0(i64 4, ptr nonnull %3) #10
  call void @_ZN6icu_7713UnicodeStringD1Ev(ptr noundef nonnull align 8 dereferenceable(64) %2) #10
  call void @llvm.lifetime.end.p0(i64 64, ptr nonnull %2) #10
  br label %76

73:                                               ; preds = %51
  %74 = landingpad { ptr, i32 }
          cleanup
  call void @llvm.lifetime.end.p0(i64 4, ptr nonnull %3) #10
  br label %75

75:                                               ; preds = %73, %49, %47
  %.pn = phi { ptr, i32 } [ %74, %73 ], [ %50, %49 ], [ %48, %47 ]
  call void @_ZN6icu_7713UnicodeStringD1Ev(ptr noundef nonnull align 8 dereferenceable(64) %2) #10
  call void @llvm.lifetime.end.p0(i64 64, ptr nonnull %2) #10
  resume { ptr, i32 } %.pn

76:                                               ; preds = %1, %61
  %.06 = phi i8 [ %72, %61 ], [ 0, %1 ]
  ret i8 %.06
}